; ModuleID = '54/722.c'
source_filename = "54/722.c"
target datalayout = "e-m:e-p270:32:32-p271:32:32-p272:64:64-i64:64-f80:128-n8:16:32:64-S128"
target triple = "x86_64-pc-linux-gnu"

@.str = private unnamed_addr constant [6 x i8] c"%d %d\00", align 1
@.str.1 = private unnamed_addr constant [3 x i8] c"%d\00", align 1

; Function Attrs: noinline nounwind uwtable
define dso_local i32 @main() #0 {
  %1 = alloca i32, align 4
  %2 = alloca i32, align 4
  %3 = alloca i32, align 4
  %4 = alloca i32, align 4
  %5 = alloca i32, align 4
  %6 = alloca i32, align 4
  store i32 0, i32* %1, align 4
  %7 = call i32 (i8*, ...) @__isoc99_scanf(i8* getelementptr inbounds ([6 x i8], [6 x i8]* @.str, i64 0, i64 0), i32* %2, i32* %3)
  store i32 0, i32* %4, align 4
  store i32 0, i32* %5, align 4
  store i32 0, i32* %6, align 4
  br label %8

8:                                                ; preds = %0, %45
  %9 = load i32, i32* %5, align 4
  %10 = add nsw i32 %9, 1
  store i32 %10, i32* %5, align 4
  %11 = load i32, i32* %5, align 4
  store i32 %11, i32* %6, align 4
  store i32 0, i32* %4, align 4
  br label %12

12:                                               ; preds = %35, %8
  %13 = load i32, i32* %4, align 4
  %14 = load i32, i32* %2, align 4
  %15 = icmp slt i32 %13, %14
  br i1 %15, label %16, label %38

16:                                               ; preds = %12
  %17 = load i32, i32* %6, align 4
  %18 = load i32, i32* %2, align 4
  %19 = srem i32 %17, %18
  %20 = load i32, i32* %3, align 4
  %21 = icmp eq i32 %19, %20
  br i1 %21, label %22, label %29

22:                                               ; preds = %16
  %23 = load i32, i32* %6, align 4
  %24 = load i32, i32* %2, align 4
  %25 = sdiv i32 %23, %24
  %26 = load i32, i32* %2, align 4
  %27 = sub nsw i32 %26, 1
  %28 = mul nsw i32 %25, %27
  store i32 %28, i32* %6, align 4
  br label %30

29:                                               ; preds = %16
  br label %38

30:                                               ; preds = %22
  %31 = load i32, i32* %6, align 4
  %32 = icmp sle i32 %31, 0
  br i1 %32, label %33, label %34

33:                                               ; preds = %30
  br label %38

34:                                               ; preds = %30
  br label %35

35:                                               ; preds = %34
  %36 = load i32, i32* %4, align 4
  %37 = add nsw i32 %36, 1
  store i32 %37, i32* %4, align 4
  br label %12

38:                                               ; preds = %33, %29, %12
  %39 = load i32, i32* %4, align 4
  %40 = load i32, i32* %2, align 4
  %41 = icmp eq i32 %39, %40
  br i1 %41, label %42, label %45

42:                                               ; preds = %38
  %43 = load i32, i32* %5, align 4
  %44 = call i32 (i8*, ...) @printf(i8* getelementptr inbounds ([3 x i8], [3 x i8]* @.str.1, i64 0, i64 0), i32 %43)
  br label %46

45:                                               ; preds = %38
  br label %8

46:                                               ; preds = %42
  ret i32 0
}

declare dso_local i32 @__isoc99_scanf(i8*, ...) #1

declare dso_local i32 @printf(i8*, ...) #1


!llvm.module.flags = !{!0}
!llvm.ident = !{!1}

!0 = !{i32 1, !"wchar_size", i32 4}
!1 = !{!"clang version 10.0.0-4ubuntu1 "}
