; ModuleID = 'source-C-CXX/53/722.c'
source_filename = "source-C-CXX/53/722.c"
target datalayout = "e-m:e-p270:32:32-p271:32:32-p272:64:64-i64:64-f80:128-n8:16:32:64-S128"
target triple = "x86_64-pc-linux-gnu"

@.str = private unnamed_addr constant [6 x i8] c"%d %d\00", align 1
@.str.1 = private unnamed_addr constant [3 x i8] c"%d\00", align 1

; Function Attrs: nofree nounwind sspstrong uwtable
define dso_local i32 @main() local_unnamed_addr #0 {
  %1 = alloca i32, align 4
  %2 = alloca i32, align 4
  %3 = bitcast i32* %1 to i8*
  call void @llvm.lifetime.start.p0i8(i64 4, i8* nonnull %3) #3
  %4 = bitcast i32* %2 to i8*
  call void @llvm.lifetime.start.p0i8(i64 4, i8* nonnull %4) #3
  %5 = call i32 (i8*, ...) @__isoc99_scanf(i8* getelementptr inbounds ([6 x i8], [6 x i8]* @.str, i64 0, i64 0), i32* nonnull %1, i32* nonnull %2)
  %6 = load i32, i32* %1, align 4, !tbaa !5
  %7 = load i32, i32* %2, align 4
  %8 = add nsw i32 %6, -1
  %9 = icmp sgt i32 %6, 0
  br i1 %9, label %10, label %27

10:                                               ; preds = %0, %25
  %11 = phi i32 [ %12, %25 ], [ 0, %0 ]
  %12 = add nuw nsw i32 %11, 1
  br label %13

13:                                               ; preds = %10, %22
  %14 = phi i32 [ %12, %10 ], [ %20, %22 ]
  %15 = phi i32 [ 0, %10 ], [ %23, %22 ]
  %16 = srem i32 %14, %6
  %17 = sdiv i32 %14, %6
  %18 = icmp eq i32 %16, %7
  br i1 %18, label %19, label %25

19:                                               ; preds = %13
  %20 = mul nsw i32 %17, %8
  %21 = icmp slt i32 %20, 1
  br i1 %21, label %25, label %22

22:                                               ; preds = %19
  %23 = add nuw nsw i32 %15, 1
  %24 = icmp eq i32 %23, %6
  br i1 %24, label %30, label %13, !llvm.loop !9

25:                                               ; preds = %13, %19
  %26 = icmp eq i32 %15, %6
  br i1 %26, label %30, label %10

27:                                               ; preds = %0
  %28 = icmp eq i32 %6, 0
  br i1 %28, label %30, label %29

29:                                               ; preds = %27, %29
  br label %29

30:                                               ; preds = %25, %22, %27
  %31 = phi i32 [ 1, %27 ], [ %12, %22 ], [ %12, %25 ]
  %32 = call i32 (i8*, ...) @printf(i8* nonnull dereferenceable(1) getelementptr inbounds ([3 x i8], [3 x i8]* @.str.1, i64 0, i64 0), i32 %31)
  call void @llvm.lifetime.end.p0i8(i64 4, i8* nonnull %4) #3
  call void @llvm.lifetime.end.p0i8(i64 4, i8* nonnull %3) #3
  ret i32 0
}

; Function Attrs: argmemonly mustprogress nofree nosync nounwind willreturn
declare void @llvm.lifetime.start.p0i8(i64 immarg, i8* nocapture) #1

; Function Attrs: nofree nounwind
declare noundef i32 @__isoc99_scanf(i8* nocapture noundef readonly, ...) local_unnamed_addr #2

; Function Attrs: nofree nounwind
declare noundef i32 @printf(i8* nocapture noundef readonly, ...) local_unnamed_addr #2

; Function Attrs: argmemonly mustprogress nofree nosync nounwind willreturn
declare void @llvm.lifetime.end.p0i8(i64 immarg, i8* nocapture) #1


!llvm.module.flags = !{!0, !1, !2, !3}
!llvm.ident = !{!4}

!0 = !{i32 1, !"wchar_size", i32 4}
!1 = !{i32 7, !"PIC Level", i32 2}
!2 = !{i32 7, !"PIE Level", i32 2}
!3 = !{i32 7, !"uwtable", i32 1}
!4 = !{!"clang version 13.0.0"}
!5 = !{!6, !6, i64 0}
!6 = !{!"int", !7, i64 0}
!7 = !{!"omnipotent char", !8, i64 0}
!8 = !{!"Simple C/C++ TBAA"}
!9 = distinct !{!9, !10}
!10 = !{!"llvm.loop.mustprogress"}
